target datalayout = "e-m:e-p270:32:32-p271:32:32-p272:64:64-i64:64-i128:128-f80:128-n8:16:32:64-S128"
target triple = "x86_64-pc-linux-gnu"

%struct.ggml_tallocr = type { ptr, ptr, i64, i64 }
%struct.ggml_tensor = type { i32, ptr, [4 x i64], [4 x i64], i32, [16 x i32], i32, [10 x ptr], ptr, i64, ptr, [64 x i8], ptr, [8 x i8] }

@.str = private unnamed_addr constant [79 x i8] c"%s: not enough space in the buffer to allocate %s (needed %zu, available %zu)\0A\00", align 1
@__func__.ggml_tallocr_alloc = private unnamed_addr constant [19 x i8] c"ggml_tallocr_alloc\00", align 1
@.str.1 = private unnamed_addr constant [119 x i8] c"generated/home/dtcxzyw/WorkSpace/Projects/compilers/llvm-opt-benchmark/bench/llama.cpp/llama.cpp/ggml/src/ggml-alloc.c\00", align 1
@.str.2 = private unnamed_addr constant [31 x i8] c"not enough space in the buffer\00", align 1

; Function Attrs: nounwind uwtable
define void @ggml_tallocr_alloc(ptr noundef %0, ptr noundef %1) #0 {
  %3 = alloca ptr, align 8
  %4 = alloca ptr, align 8
  %5 = alloca i64, align 8
  %6 = alloca ptr, align 8
  store ptr %0, ptr %3, align 8, !tbaa !16
  store ptr %1, ptr %4, align 8, !tbaa !18
  call void @llvm.lifetime.start.p0(i64 8, ptr %5) #11
  %7 = load ptr, ptr %3, align 8, !tbaa !16
  %8 = getelementptr inbounds nuw %struct.ggml_tallocr, ptr %7, i32 0, i32 0
  %9 = load ptr, ptr %8, align 8, !tbaa !11
  %10 = load ptr, ptr %4, align 8, !tbaa !18
  %11 = call i64 @ggml_backend_buffer_get_alloc_size(ptr noundef %9, ptr noundef %10)
  store i64 %11, ptr %5, align 8, !tbaa !9
  %12 = load i64, ptr %5, align 8, !tbaa !9
  %13 = load ptr, ptr %3, align 8, !tbaa !16
  %14 = getelementptr inbounds nuw %struct.ggml_tallocr, ptr %13, i32 0, i32 2
  %15 = load i64, ptr %14, align 8, !tbaa !14
  %16 = add i64 %12, %15
  %17 = sub i64 %16, 1
  %18 = load ptr, ptr %3, align 8, !tbaa !16
  %19 = getelementptr inbounds nuw %struct.ggml_tallocr, ptr %18, i32 0, i32 2
  %20 = load i64, ptr %19, align 8, !tbaa !14
  %21 = sub i64 %20, 1
  %22 = xor i64 %21, -1
  %23 = and i64 %17, %22
  store i64 %23, ptr %5, align 8, !tbaa !9
  %24 = load ptr, ptr %3, align 8, !tbaa !16
  %25 = getelementptr inbounds nuw %struct.ggml_tallocr, ptr %24, i32 0, i32 3
  %26 = load i64, ptr %25, align 8, !tbaa !15
  %27 = load i64, ptr %5, align 8, !tbaa !9
  %28 = add i64 %26, %27
  %29 = load ptr, ptr %3, align 8, !tbaa !16
  %30 = getelementptr inbounds nuw %struct.ggml_tallocr, ptr %29, i32 0, i32 0
  %31 = load ptr, ptr %30, align 8, !tbaa !11
  %32 = call i64 @ggml_backend_buffer_get_size(ptr noundef %31)
  %33 = icmp ugt i64 %28, %32
  br i1 %33, label %34, label %47

34:                                               ; preds = %2
  %35 = load ptr, ptr %4, align 8, !tbaa !18
  %36 = getelementptr inbounds nuw %struct.ggml_tensor, ptr %35, i32 0, i32 11
  %37 = getelementptr inbounds [64 x i8], ptr %36, i64 0, i64 0
  %38 = load i64, ptr %5, align 8, !tbaa !9
  %39 = load ptr, ptr %3, align 8, !tbaa !16
  %40 = getelementptr inbounds nuw %struct.ggml_tallocr, ptr %39, i32 0, i32 0
  %41 = load ptr, ptr %40, align 8, !tbaa !11
  %42 = call i64 @ggml_backend_buffer_get_size(ptr noundef %41)
  %43 = load ptr, ptr %3, align 8, !tbaa !16
  %44 = getelementptr inbounds nuw %struct.ggml_tallocr, ptr %43, i32 0, i32 3
  %45 = load i64, ptr %44, align 8, !tbaa !15
  %46 = sub i64 %42, %45
  call void (i32, ptr, ...) @ggml_log_internal(i32 noundef 4, ptr noundef @.str, ptr noundef @__func__.ggml_tallocr_alloc, ptr noundef %37, i64 noundef %38, i64 noundef %46)
  call void (ptr, i32, ptr, ...) @ggml_abort(ptr noundef @.str.1, i32 noundef 99, ptr noundef @.str.2) #12
  unreachable

47:                                               ; preds = %2
  call void @llvm.lifetime.start.p0(i64 8, ptr %6) #11
  %48 = load ptr, ptr %3, align 8, !tbaa !16
  %49 = getelementptr inbounds nuw %struct.ggml_tallocr, ptr %48, i32 0, i32 0
  %50 = load ptr, ptr %49, align 8, !tbaa !11
  %51 = call ptr @ggml_backend_buffer_get_base(ptr noundef %50)
  %52 = load ptr, ptr %3, align 8, !tbaa !16
  %53 = getelementptr inbounds nuw %struct.ggml_tallocr, ptr %52, i32 0, i32 3
  %54 = load i64, ptr %53, align 8, !tbaa !15
  %55 = getelementptr inbounds nuw i8, ptr %51, i64 %54
  store ptr %55, ptr %6, align 8, !tbaa !8
  %56 = load i64, ptr %5, align 8, !tbaa !9
  %57 = load ptr, ptr %3, align 8, !tbaa !16
  %58 = getelementptr inbounds nuw %struct.ggml_tallocr, ptr %57, i32 0, i32 3
  %59 = load i64, ptr %58, align 8, !tbaa !15
  %60 = add i64 %59, %56
  store i64 %60, ptr %58, align 8, !tbaa !15
  %61 = load ptr, ptr %3, align 8, !tbaa !16
  %62 = getelementptr inbounds nuw %struct.ggml_tallocr, ptr %61, i32 0, i32 0
  %63 = load ptr, ptr %62, align 8, !tbaa !11
  %64 = load ptr, ptr %4, align 8, !tbaa !18
  %65 = load ptr, ptr %6, align 8, !tbaa !8
  call void @ggml_backend_tensor_alloc(ptr noundef %63, ptr noundef %64, ptr noundef %65)
  call void @llvm.lifetime.end.p0(i64 8, ptr %6) #11
  call void @llvm.lifetime.end.p0(i64 8, ptr %5) #11
  ret void
}