; Function Attrs: nounwind uwtable
define void @ggml_tallocr_alloc(ptr noundef captures(none) %0, ptr noundef %1) local_unnamed_addr #0 {
  %3 = load ptr, ptr %0, align 8, !tbaa !3
  %4 = tail call i64 @ggml_backend_buffer_get_alloc_size(ptr noundef %3, ptr noundef %1) #12
  %5 = getelementptr inbounds nuw i8, ptr %0, i64 16
  %6 = load i64, ptr %5, align 8, !tbaa !11
  %7 = add i64 %4, -1
  %8 = add i64 %7, %6
  %9 = sub i64 0, %6
  %10 = and i64 %8, %9
  %11 = getelementptr inbounds nuw i8, ptr %0, i64 24
  %12 = load i64, ptr %11, align 8, !tbaa !12
  %13 = add i64 %10, %12
  %14 = load ptr, ptr %0, align 8, !tbaa !3
  %15 = tail call i64 @ggml_backend_buffer_get_size(ptr noundef %14) #12
  %16 = icmp ugt i64 %13, %15
  br i1 %16, label %17, label %23

17:                                               ; preds = %2
  %18 = getelementptr inbounds nuw i8, ptr %1, i64 256
  %19 = load ptr, ptr %0, align 8, !tbaa !3
  %20 = tail call i64 @ggml_backend_buffer_get_size(ptr noundef %19) #12
  %21 = load i64, ptr %11, align 8, !tbaa !12
  %22 = sub i64 %20, %21
  tail call void (i32, ptr, ...) @ggml_log_internal(i32 noundef 4, ptr noundef nonnull @.str, ptr noundef nonnull @__func__.ggml_tallocr_alloc, ptr noundef nonnull %18, i64 noundef %10, i64 noundef %22) #12
  tail call void (ptr, i32, ptr, ...) @ggml_abort(ptr noundef nonnull @.str.1, i32 noundef 99, ptr noundef nonnull @.str.2) #13
  unreachable

23:                                               ; preds = %2
  %24 = load ptr, ptr %0, align 8, !tbaa !3
  %25 = tail call ptr @ggml_backend_buffer_get_base(ptr noundef %24) #12
  %26 = load i64, ptr %11, align 8, !tbaa !12
  %27 = getelementptr inbounds nuw i8, ptr %25, i64 %26
  %28 = add i64 %26, %10
  store i64 %28, ptr %11, align 8, !tbaa !12
  %29 = load ptr, ptr %0, align 8, !tbaa !3
  tail call void @ggml_backend_tensor_alloc(ptr noundef %29, ptr noundef %1, ptr noundef %27) #12
  ret void
}